target datalayout = "e-m:e-p270:32:32-p271:32:32-p272:64:64-i64:64-i128:128-f80:128-n8:16:32:64-S128"
target triple = "x86_64-pc-linux-gnu"

%struct.Curl_cftype = type { ptr, i32, i32, ptr, ptr, ptr, ptr, ptr, ptr, ptr, ptr, ptr, ptr, ptr, ptr, ptr }
%struct.Curl_cfilter = type { ptr, ptr, ptr, ptr, i32, i8 }
%struct.cf_call_data = type { ptr }
%struct.cf_h2_proxy_ctx = type { ptr, %struct.cf_call_data, %struct.bufq, %struct.bufq, %struct.tunnel_stream, i32, i32, i8 }
%struct.bufq = type { ptr, ptr, ptr, ptr, i64, i64, i64, i32 }
%struct.tunnel_stream = type { ptr, %struct.bufq, %struct.bufq, ptr, i32, i32, i32, i8 }
%struct.Curl_easy = type { i32, i64, i64, ptr, %struct.Curl_llist_node, %struct.Curl_llist_node, i32, i32, %struct.Curl_message, %struct.easy_pollset, %struct.Names, ptr, ptr, ptr, %struct.SingleRequest, %struct.UserDefined, ptr, ptr, %struct.Progress, %struct.UrlState, ptr, %struct.PureInfo, %struct.curl_tlssessioninfo }
%struct.Curl_llist_node = type { ptr, ptr, ptr, ptr }
%struct.Curl_message = type { %struct.Curl_llist_node, %struct.CURLMsg }
%struct.CURLMsg = type { i32, ptr, %union.anon }
%union.anon = type { ptr }
%struct.easy_pollset = type { [5 x i32], i32, [5 x i8] }
%struct.Names = type { ptr, i32 }
%struct.SingleRequest = type <{ i64, i64, i64, i64, %struct.curltime, i32, i32, i32, i32, i64, i32, i32, i32, i32, ptr, ptr, %struct.bufq, i64, i64, ptr, ptr, %union.anon.0, ptr, i8, i32, [3 x i8] }>
%struct.curltime = type { i64, i32 }
%union.anon.0 = type { ptr }
%struct.UserDefined = type <{ ptr, ptr, ptr, ptr, ptr, ptr, i16, [6 x i8], i64, i64, i64, ptr, ptr, i64, i16, i16, [4 x i8], ptr, ptr, ptr, ptr, ptr, ptr, ptr, ptr, ptr, ptr, ptr, ptr, ptr, ptr, ptr, ptr, ptr, ptr, ptr, ptr, ptr, ptr, ptr, i32, i32, i32, i32, i32, [4 x i8], i64, i64, i64, i64, i64, i64, i64, i64, ptr, ptr, %struct.curl_mimepart, ptr, ptr, i64, i8, i8, i8, [5 x i8], %struct.ssl_config_data, %struct.ssl_config_data, ptr, i16, i8, i8, [4 x i8], %struct.ssl_general_config, i32, i32, i32, [4 x i8], ptr, ptr, i8, [7 x i8], i64, i8, i8, i8, i8, i32, ptr, ptr, ptr, i8, i8, [2 x i8], i32, [63 x ptr], [8 x ptr], i32, i32, i32, [4 x i8], ptr, ptr, ptr, ptr, ptr, i8, [3 x i8], i32, i32, i32, i64, %struct.Curl_data_priority, ptr, ptr, i64, ptr, i64, ptr, ptr, ptr, i8, [3 x i8], i32, i8, i8, i64, [6 x i8] }>
%struct.curl_mimepart = type { ptr, ptr, i32, i32, ptr, ptr, ptr, ptr, ptr, ptr, ptr, ptr, ptr, ptr, ptr, i64, %struct.mime_state, ptr, %struct.mime_encoder_state, i64 }
%struct.mime_state = type { i32, ptr, i64 }
%struct.mime_encoder_state = type { i64, i64, i64, [256 x i8] }
%struct.ssl_config_data = type { %struct.ssl_primary_config, i64, ptr, ptr, ptr, ptr, ptr, ptr, ptr, i16 }
%struct.ssl_primary_config = type { ptr, ptr, ptr, ptr, ptr, ptr, ptr, ptr, ptr, ptr, ptr, ptr, i8, i32, i8, i8 }
%struct.ssl_general_config = type { i64, i32 }
%struct.Curl_data_priority = type { ptr, ptr, i32, i8 }
%struct.Progress = type { i64, %struct.pgrs_dir, %struct.pgrs_dir, i64, i64, i32, i32, i64, i64, i64, i64, i64, i64, i64, i64, i64, %struct.curltime, %struct.curltime, %struct.curltime, %struct.curltime, [6 x i64], [6 x %struct.curltime], i32, i8 }
%struct.pgrs_dir = type { i64, i64, i64, %struct.pgrs_measure }
%struct.pgrs_measure = type { %struct.curltime, i64 }
%struct.UrlState = type { %struct.curltime, i64, i64, %struct.dynbuf, ptr, i64, ptr, i32, i32, i32, ptr, i64, i32, i64, i32, ptr, %struct.digestdata, %struct.digestdata, %struct.auth, %struct.auth, %struct.Curl_async, ptr, %struct.curltime, %struct.Curl_tree, %struct.Curl_llist, [15 x %struct.time_node], ptr, ptr, i64, i64, %struct.Curl_data_priority, ptr, ptr, ptr, %struct.urlpieces, ptr, ptr, ptr, ptr, ptr, i64, %struct.dynbuf, %struct.Curl_llist, [2 x %struct.curl_header], ptr, i32, ptr, ptr, %struct.store_netrc, %struct.dynamically_allocated_data, i8, i8, i8, i8, i32 }
%struct.digestdata = type { ptr, ptr, ptr, ptr, ptr, ptr, i32, i8, i8 }
%struct.auth = type { i64, i64, i64, i8 }
%struct.Curl_async = type { ptr, ptr, ptr, ptr, i32, i32, i8 }
%struct.Curl_tree = type { ptr, ptr, ptr, ptr, %struct.curltime, ptr }
%struct.time_node = type { %struct.Curl_llist_node, %struct.curltime, i32 }
%struct.urlpieces = type { ptr, ptr, ptr, ptr, ptr, ptr, ptr, ptr }
%struct.dynbuf = type { ptr, i64, i64, i64 }
%struct.Curl_llist = type { ptr, ptr, ptr, i64 }
%struct.curl_header = type { ptr, ptr, i64, i64, i32, ptr }
%struct.store_netrc = type { %struct.dynbuf, ptr, i8 }
%struct.dynamically_allocated_data = type { ptr, ptr, ptr, ptr, ptr, ptr, ptr, ptr, ptr, ptr, ptr, ptr, ptr }
%struct.PureInfo = type { i32, i32, i32, i64, i64, i64, i64, i64, ptr, ptr, i64, i32, %struct.ip_quadruple, i32, ptr, i32, %struct.curl_certinfo, i32, i8 }
%struct.ip_quadruple = type { [46 x i8], [46 x i8], i32, i32 }
%struct.curl_certinfo = type { i32, ptr }
%struct.curl_tlssessioninfo = type { i32, ptr }
%struct.curl_trc_feat = type { ptr, i32 }

@.str.73 = private unnamed_addr constant [80 x i8] c"[%d] flush -> %d, h2 windows %d-%d (stream-conn), buffers %zu-%zu (stream-conn)\00", align 1

; Function Attrs: nounwind uwtable
define internal i32 @cf_h2_proxy_flush(ptr noundef %0, ptr noundef %1) #0 {
  %3 = alloca i32, align 4
  %4 = alloca ptr, align 8
  %5 = alloca ptr, align 8
  %6 = alloca ptr, align 8
  %7 = alloca %struct.cf_call_data, align 8
  %8 = alloca i32, align 4
  %9 = alloca i32, align 4
  %10 = alloca i32, align 4
  store ptr %0, ptr %4, align 8, !tbaa !4
  store ptr %1, ptr %5, align 8, !tbaa !9
  call void @llvm.lifetime.start.p0(i64 8, ptr %6) #6
  %11 = load ptr, ptr %4, align 8, !tbaa !4
  %12 = getelementptr inbounds nuw %struct.Curl_cfilter, ptr %11, i32 0, i32 2
  %13 = load ptr, ptr %12, align 8, !tbaa !11
  store ptr %13, ptr %6, align 8, !tbaa !16
  call void @llvm.lifetime.start.p0(i64 8, ptr %7) #6
  call void @llvm.lifetime.start.p0(i64 4, ptr %8) #6
  store i32 0, ptr %8, align 4, !tbaa !22
  br label %14

14:                                               ; preds = %2
  %15 = load ptr, ptr %4, align 8, !tbaa !4
  %16 = getelementptr inbounds nuw %struct.Curl_cfilter, ptr %15, i32 0, i32 2
  %17 = load ptr, ptr %16, align 8, !tbaa !11
  %18 = getelementptr inbounds nuw %struct.cf_h2_proxy_ctx, ptr %17, i32 0, i32 1
  call void @llvm.memcpy.p0.p0.i64(ptr align 8 %7, ptr align 8 %18, i64 8, i1 false), !tbaa.struct !28
  %19 = load ptr, ptr %5, align 8, !tbaa !9
  %20 = load ptr, ptr %4, align 8, !tbaa !4
  %21 = getelementptr inbounds nuw %struct.Curl_cfilter, ptr %20, i32 0, i32 2
  %22 = load ptr, ptr %21, align 8, !tbaa !11
  %23 = getelementptr inbounds nuw %struct.cf_h2_proxy_ctx, ptr %22, i32 0, i32 1
  %24 = getelementptr inbounds nuw %struct.cf_call_data, ptr %23, i32 0, i32 0
  store ptr %19, ptr %24, align 8, !tbaa !29
  br label %25

25:                                               ; preds = %14
  br label %26

26:                                               ; preds = %25
  %27 = load ptr, ptr %6, align 8, !tbaa !16
  %28 = getelementptr inbounds nuw %struct.cf_h2_proxy_ctx, ptr %27, i32 0, i32 4
  %29 = getelementptr inbounds nuw %struct.tunnel_stream, ptr %28, i32 0, i32 2
  %30 = call zeroext i1 @Curl_bufq_is_empty(ptr noundef %29)
  br i1 %30, label %48, label %31

31:                                               ; preds = %26
  call void @llvm.lifetime.start.p0(i64 4, ptr %9) #6
  %32 = load ptr, ptr %6, align 8, !tbaa !16
  %33 = getelementptr inbounds nuw %struct.cf_h2_proxy_ctx, ptr %32, i32 0, i32 0
  %34 = load ptr, ptr %33, align 8, !tbaa !40
  %35 = load ptr, ptr %6, align 8, !tbaa !16
  %36 = getelementptr inbounds nuw %struct.cf_h2_proxy_ctx, ptr %35, i32 0, i32 4
  %37 = getelementptr inbounds nuw %struct.tunnel_stream, ptr %36, i32 0, i32 4
  %38 = load i32, ptr %37, align 8, !tbaa !48
  %39 = call i32 @nghttp2_session_resume_data(ptr noundef %34, i32 noundef %38)
  store i32 %39, ptr %9, align 4, !tbaa !22
  %40 = load i32, ptr %9, align 4, !tbaa !22
  %41 = call i32 @nghttp2_is_fatal(i32 noundef %40)
  %42 = icmp ne i32 %41, 0
  br i1 %42, label %43, label %44

43:                                               ; preds = %31
  store i32 55, ptr %8, align 4, !tbaa !22
  store i32 4, ptr %10, align 4
  br label %45

44:                                               ; preds = %31
  store i32 0, ptr %10, align 4
  br label %45

45:                                               ; preds = %43, %44
  call void @llvm.lifetime.end.p0(i64 4, ptr %9) #6
  %46 = load i32, ptr %10, align 4
  switch i32 %46, label %127 [
    i32 0, label %47
    i32 4, label %52
  ]

47:                                               ; preds = %45
  br label %48

48:                                               ; preds = %47, %26
  %49 = load ptr, ptr %4, align 8, !tbaa !4
  %50 = load ptr, ptr %5, align 8, !tbaa !9
  %51 = call i32 @proxy_h2_progress_egress(ptr noundef %49, ptr noundef %50)
  store i32 %51, ptr %8, align 4, !tbaa !22
  br label %52

52:                                               ; preds = %48, %45
  br label %53

53:                                               ; preds = %52
  %54 = load ptr, ptr %5, align 8, !tbaa !9
  %55 = icmp ne ptr %54, null
  br i1 %55, label %56, label %116

56:                                               ; preds = %53
  %57 = load ptr, ptr %5, align 8, !tbaa !9
  %58 = getelementptr inbounds nuw %struct.Curl_easy, ptr %57, i32 0, i32 15
  %59 = getelementptr inbounds nuw %struct.UserDefined, ptr %58, i32 0, i32 124
  %60 = load i64, ptr %59, align 2
  %61 = lshr i64 %60, 27
  %62 = and i64 %61, 1
  %63 = trunc i64 %62 to i32
  %64 = icmp ne i32 %63, 0
  br i1 %64, label %65, label %116

65:                                               ; preds = %56
  %66 = load ptr, ptr %5, align 8, !tbaa !9
  %67 = getelementptr inbounds nuw %struct.Curl_easy, ptr %66, i32 0, i32 19
  %68 = getelementptr inbounds nuw %struct.UrlState, ptr %67, i32 0, i32 47
  %69 = load ptr, ptr %68, align 8, !tbaa !49
  %70 = icmp ne ptr %69, null
  br i1 %70, label %71, label %79

71:                                               ; preds = %65
  %72 = load ptr, ptr %5, align 8, !tbaa !9
  %73 = getelementptr inbounds nuw %struct.Curl_easy, ptr %72, i32 0, i32 19
  %74 = getelementptr inbounds nuw %struct.UrlState, ptr %73, i32 0, i32 47
  %75 = load ptr, ptr %74, align 8, !tbaa !49
  %76 = getelementptr inbounds nuw %struct.curl_trc_feat, ptr %75, i32 0, i32 1
  %77 = load i32, ptr %76, align 8, !tbaa !111
  %78 = icmp sge i32 %77, 1
  br i1 %78, label %79, label %116

79:                                               ; preds = %71, %65
  %80 = load ptr, ptr %4, align 8, !tbaa !4
  %81 = icmp ne ptr %80, null
  br i1 %81, label %82, label %116

82:                                               ; preds = %79
  %83 = load ptr, ptr %4, align 8, !tbaa !4
  %84 = getelementptr inbounds nuw %struct.Curl_cfilter, ptr %83, i32 0, i32 0
  %85 = load ptr, ptr %84, align 8, !tbaa !43
  %86 = getelementptr inbounds nuw %struct.Curl_cftype, ptr %85, i32 0, i32 2
  %87 = load i32, ptr %86, align 4, !tbaa !113
  %88 = icmp sge i32 %87, 1
  br i1 %88, label %89, label %116

89:                                               ; preds = %82
  %90 = load ptr, ptr %5, align 8, !tbaa !9
  %91 = load ptr, ptr %4, align 8, !tbaa !4
  %92 = load ptr, ptr %6, align 8, !tbaa !16
  %93 = getelementptr inbounds nuw %struct.cf_h2_proxy_ctx, ptr %92, i32 0, i32 4
  %94 = getelementptr inbounds nuw %struct.tunnel_stream, ptr %93, i32 0, i32 4
  %95 = load i32, ptr %94, align 8, !tbaa !48
  %96 = load i32, ptr %8, align 4, !tbaa !22
  %97 = load ptr, ptr %6, align 8, !tbaa !16
  %98 = getelementptr inbounds nuw %struct.cf_h2_proxy_ctx, ptr %97, i32 0, i32 0
  %99 = load ptr, ptr %98, align 8, !tbaa !40
  %100 = load ptr, ptr %6, align 8, !tbaa !16
  %101 = getelementptr inbounds nuw %struct.cf_h2_proxy_ctx, ptr %100, i32 0, i32 4
  %102 = getelementptr inbounds nuw %struct.tunnel_stream, ptr %101, i32 0, i32 4
  %103 = load i32, ptr %102, align 8, !tbaa !48
  %104 = call i32 @nghttp2_session_get_stream_remote_window_size(ptr noundef %99, i32 noundef %103)
  %105 = load ptr, ptr %6, align 8, !tbaa !16
  %106 = getelementptr inbounds nuw %struct.cf_h2_proxy_ctx, ptr %105, i32 0, i32 0
  %107 = load ptr, ptr %106, align 8, !tbaa !40
  %108 = call i32 @nghttp2_session_get_remote_window_size(ptr noundef %107)
  %109 = load ptr, ptr %6, align 8, !tbaa !16
  %110 = getelementptr inbounds nuw %struct.cf_h2_proxy_ctx, ptr %109, i32 0, i32 4
  %111 = getelementptr inbounds nuw %struct.tunnel_stream, ptr %110, i32 0, i32 2
  %112 = call i64 @Curl_bufq_len(ptr noundef %111)
  %113 = load ptr, ptr %6, align 8, !tbaa !16
  %114 = getelementptr inbounds nuw %struct.cf_h2_proxy_ctx, ptr %113, i32 0, i32 3
  %115 = call i64 @Curl_bufq_len(ptr noundef %114)
  call void (ptr, ptr, ptr, ...) @Curl_trc_cf_infof(ptr noundef %90, ptr noundef %91, ptr noundef @.str.73, i32 noundef %95, i32 noundef %96, i32 noundef %104, i32 noundef %108, i64 noundef %112, i64 noundef %115)
  br label %116

116:                                              ; preds = %89, %82, %79, %71, %56, %53
  br label %117

117:                                              ; preds = %116
  br label %118

118:                                              ; preds = %117
  br label %119

119:                                              ; preds = %118
  %120 = load ptr, ptr %4, align 8, !tbaa !4
  %121 = getelementptr inbounds nuw %struct.Curl_cfilter, ptr %120, i32 0, i32 2
  %122 = load ptr, ptr %121, align 8, !tbaa !11
  %123 = getelementptr inbounds nuw %struct.cf_h2_proxy_ctx, ptr %122, i32 0, i32 1
  call void @llvm.memcpy.p0.p0.i64(ptr align 8 %123, ptr align 8 %7, i64 8, i1 false), !tbaa.struct !28
  br label %124

124:                                              ; preds = %119
  br label %125

125:                                              ; preds = %124
  %126 = load i32, ptr %8, align 4, !tbaa !22
  store i32 %126, ptr %3, align 4
  store i32 1, ptr %10, align 4
  br label %127

127:                                              ; preds = %125, %45
  call void @llvm.lifetime.end.p0(i64 4, ptr %8) #6
  call void @llvm.lifetime.end.p0(i64 8, ptr %7) #6
  call void @llvm.lifetime.end.p0(i64 8, ptr %6) #6
  %128 = load i32, ptr %3, align 4
  ret i32 %128
}

; Function Attrs: nounwind uwtable
define internal i32 @cf_h2_proxy_cntrl(ptr noundef %0, ptr noundef %1, i32 noundef %2, i32 noundef %3, ptr noundef %4) #0 {
  %6 = alloca ptr, align 8
  %7 = alloca ptr, align 8
  %8 = alloca i32, align 4
  %9 = alloca i32, align 4
  %10 = alloca ptr, align 8
  %11 = alloca i32, align 4
  %12 = alloca %struct.cf_call_data, align 8
  store ptr %0, ptr %6, align 8, !tbaa !4
  store ptr %1, ptr %7, align 8, !tbaa !9
  store i32 %2, ptr %8, align 4, !tbaa !22
  store i32 %3, ptr %9, align 4, !tbaa !22
  store ptr %4, ptr %10, align 8, !tbaa !116
  call void @llvm.lifetime.start.p0(i64 4, ptr %11) #6
  store i32 0, ptr %11, align 4, !tbaa !22
  call void @llvm.lifetime.start.p0(i64 8, ptr %12) #6
  %13 = load i32, ptr %8, align 4, !tbaa !22
  switch i32 %13, label %38 [
    i32 258, label %14
  ]

14:                                               ; preds = %5
  br label %15

15:                                               ; preds = %14
  %16 = load ptr, ptr %6, align 8, !tbaa !4
  %17 = getelementptr inbounds nuw %struct.Curl_cfilter, ptr %16, i32 0, i32 2
  %18 = load ptr, ptr %17, align 8, !tbaa !11
  %19 = getelementptr inbounds nuw %struct.cf_h2_proxy_ctx, ptr %18, i32 0, i32 1
  call void @llvm.memcpy.p0.p0.i64(ptr align 8 %12, ptr align 8 %19, i64 8, i1 false), !tbaa.struct !28
  %20 = load ptr, ptr %7, align 8, !tbaa !9
  %21 = load ptr, ptr %6, align 8, !tbaa !4
  %22 = getelementptr inbounds nuw %struct.Curl_cfilter, ptr %21, i32 0, i32 2
  %23 = load ptr, ptr %22, align 8, !tbaa !11
  %24 = getelementptr inbounds nuw %struct.cf_h2_proxy_ctx, ptr %23, i32 0, i32 1
  %25 = getelementptr inbounds nuw %struct.cf_call_data, ptr %24, i32 0, i32 0
  store ptr %20, ptr %25, align 8, !tbaa !29
  br label %26

26:                                               ; preds = %15
  br label %27

27:                                               ; preds = %26
  %28 = load ptr, ptr %6, align 8, !tbaa !4
  %29 = load ptr, ptr %7, align 8, !tbaa !9
  %30 = call i32 @cf_h2_proxy_flush(ptr noundef %28, ptr noundef %29)
  store i32 %30, ptr %11, align 4, !tbaa !22
  br label %31

31:                                               ; preds = %27
  %32 = load ptr, ptr %6, align 8, !tbaa !4
  %33 = getelementptr inbounds nuw %struct.Curl_cfilter, ptr %32, i32 0, i32 2
  %34 = load ptr, ptr %33, align 8, !tbaa !11
  %35 = getelementptr inbounds nuw %struct.cf_h2_proxy_ctx, ptr %34, i32 0, i32 1
  call void @llvm.memcpy.p0.p0.i64(ptr align 8 %35, ptr align 8 %12, i64 8, i1 false), !tbaa.struct !28
  br label %36

36:                                               ; preds = %31
  br label %37

37:                                               ; preds = %36
  br label %39

38:                                               ; preds = %5
  br label %39

39:                                               ; preds = %38, %37
  %40 = load i32, ptr %11, align 4, !tbaa !22
  call void @llvm.lifetime.end.p0(i64 8, ptr %12) #6
  call void @llvm.lifetime.end.p0(i64 4, ptr %11) #6
  ret i32 %40
}