; Function Attrs: nounwind uwtable
define internal i32 @cf_h2_proxy_cntrl(ptr noundef %0, ptr noundef %1, i32 noundef %2, i32 %3, ptr readnone captures(none) %4) #0 {
  %cond = icmp eq i32 %2, 258
  br i1 %cond, label %6, label %49

6:                                                ; preds = %5
  %7 = getelementptr inbounds nuw i8, ptr %0, i64 16
  %8 = load ptr, ptr %7, align 8, !tbaa !4
  %9 = getelementptr inbounds nuw i8, ptr %8, i64 8
  %.sroa.0.0.copyload = load ptr, ptr %9, align 8, !tbaa !13
  store ptr %1, ptr %9, align 8, !tbaa !34
  %10 = getelementptr inbounds nuw i8, ptr %8, i64 216
  %11 = tail call zeroext i1 @Curl_bufq_is_empty(ptr noundef nonnull %10) #7
  br i1 %11, label %18, label %12

12:                                               ; preds = %6
  %13 = load ptr, ptr %8, align 8, !tbaa !15
  %14 = getelementptr inbounds nuw i8, ptr %8, i64 288
  %15 = load i32, ptr %14, align 8, !tbaa !133
  %16 = tail call i32 @nghttp2_session_resume_data(ptr noundef %13, i32 noundef %15) #7
  %17 = tail call i32 @nghttp2_is_fatal(i32 noundef %16) #7
  %.not.i = icmp eq i32 %17, 0
  br i1 %.not.i, label %18, label %20

18:                                               ; preds = %12, %6
  %19 = tail call fastcc i32 @proxy_h2_progress_egress(ptr noundef nonnull %0, ptr noundef %1)
  br label %20

20:                                               ; preds = %18, %12
  %.1.i = phi i32 [ %19, %18 ], [ 55, %12 ]
  %.not34.i = icmp eq ptr %1, null
  br i1 %.not34.i, label %cf_h2_proxy_flush.exit, label %21

21:                                               ; preds = %20
  %22 = getelementptr inbounds nuw i8, ptr %1, i64 2562
  %23 = load i64, ptr %22, align 2
  %24 = and i64 %23, 134217728
  %.not35.i = icmp eq i64 %24, 0
  br i1 %.not35.i, label %cf_h2_proxy_flush.exit, label %25

25:                                               ; preds = %21
  %26 = getelementptr inbounds nuw i8, ptr %1, i64 4712
  %27 = load ptr, ptr %26, align 8, !tbaa !108
  %.not36.i = icmp eq ptr %27, null
  br i1 %.not36.i, label %32, label %28

28:                                               ; preds = %25
  %29 = getelementptr inbounds nuw i8, ptr %27, i64 8
  %30 = load i32, ptr %29, align 8, !tbaa !109
  %31 = icmp sgt i32 %30, 0
  br i1 %31, label %32, label %cf_h2_proxy_flush.exit

32:                                               ; preds = %28, %25
  %33 = load ptr, ptr %0, align 8, !tbaa !111
  %34 = getelementptr inbounds nuw i8, ptr %33, i64 12
  %35 = load i32, ptr %34, align 4, !tbaa !112
  %36 = icmp sgt i32 %35, 0
  br i1 %36, label %37, label %cf_h2_proxy_flush.exit

37:                                               ; preds = %32
  %38 = getelementptr inbounds nuw i8, ptr %8, i64 288
  %39 = load i32, ptr %38, align 8, !tbaa !133
  %40 = load ptr, ptr %8, align 8, !tbaa !15
  %41 = tail call i32 @nghttp2_session_get_stream_remote_window_size(ptr noundef %40, i32 noundef %39) #7
  %42 = load ptr, ptr %8, align 8, !tbaa !15
  %43 = tail call i32 @nghttp2_session_get_remote_window_size(ptr noundef %42) #7
  %44 = tail call i64 @Curl_bufq_len(ptr noundef nonnull %10) #7
  %45 = getelementptr inbounds nuw i8, ptr %8, i64 80
  %46 = tail call i64 @Curl_bufq_len(ptr noundef nonnull %45) #7
  tail call void (ptr, ptr, ptr, ...) @Curl_trc_cf_infof(ptr noundef nonnull %1, ptr noundef nonnull %0, ptr noundef nonnull @.str.73, i32 noundef %39, i32 noundef %.1.i, i32 noundef %41, i32 noundef %43, i64 noundef %44, i64 noundef %46) #7
  br label %cf_h2_proxy_flush.exit

cf_h2_proxy_flush.exit:                           ; preds = %20, %21, %28, %32, %37
  %47 = load ptr, ptr %7, align 8, !tbaa !4
  %48 = getelementptr inbounds nuw i8, ptr %47, i64 8
  store ptr %.sroa.0.0.copyload, ptr %48, align 8, !tbaa !13
  br label %49

49:                                               ; preds = %5, %cf_h2_proxy_flush.exit
  %.0 = phi i32 [ %.1.i, %cf_h2_proxy_flush.exit ], [ 0, %5 ]
  ret i32 %.0
}